(lp0
Vplaceholder/x_inputs
p1
aVplaceholder/y_targets
p2
aVlayer1/random_normal/shape
p3
aVlayer1/random_normal/mean
p4
aVlayer1/random_normal/stddev
p5
aVlayer1/random_normal/RandomStandardNormal
p6
aVlayer1/random_normal/mul
p7
aVlayer1/random_normal
p8
aVlayer1/layer1_weights
p9
aVlayer1/layer1_weights/Assign
p10
aVlayer1/layer1_weights/read
p11
aVlayer1/zeros
p12
aVlayer1/layer1_bias
p13
aVlayer1/layer1_bias/Assign
p14
aVlayer1/layer1_bias/read
p15
aVlayer1/MatMul
p16
aVlayer1/Add
p17
aVlayer1/layer1_nodes
p18
aVlayer2/random_normal/shape
p19
aVlayer2/random_normal/mean
p20
aVlayer2/random_normal/stddev
p21
aVlayer2/random_normal/RandomStandardNormal
p22
aVlayer2/random_normal/mul
p23
aVlayer2/random_normal
p24
aVlayer2/layer2_weights
p25
aVlayer2/layer2_weights/Assign
p26
aVlayer2/layer2_weights/read
p27
aVlayer2/zeros
p28
aVlayer2/layer2_bias
p29
aVlayer2/layer2_bias/Assign
p30
aVlayer2/layer2_bias/read
p31
aVlayer2/concat/axis
p32
aVlayer2/concat
p33
aVlayer2/MatMul
p34
aVlayer2/Add
p35
aVlayer2/layer2_nodes
p36
aVoutput_layer/random_normal/shape
p37
aVoutput_layer/random_normal/mean
p38
aVoutput_layer/random_normal/stddev
p39
aVoutput_layer/random_normal/RandomStandardNormal
p40
aVoutput_layer/random_normal/mul
p41
aVoutput_layer/random_normal
p42
aVoutput_layer/output_layer_weights
p43
aVoutput_layer/output_layer_weights/Assign
p44
aVoutput_layer/output_layer_weights/read
p45
aVoutput_layer/zeros
p46
aVoutput_layer/output_layer_bias
p47
aVoutput_layer/output_layer_bias/Assign
p48
aVoutput_layer/output_layer_bias/read
p49
aVoutput_layer/concat/axis
p50
aVoutput_layer/concat
p51
aVoutput_layer/MatMul
p52
aVoutput_layer/y_output
p53
aVloss_function/SquaredDifference
p54
aVloss_function/Const
p55
aVloss_function/mean_squared_error
p56
aVOptimization/gradients/Shape
p57
aVOptimization/gradients/Const
p58
aVOptimization/gradients/Fill
p59
aVOptimization/gradients/loss_function/mean_squared_error_grad/Reshape/shape
p60
aVOptimization/gradients/loss_function/mean_squared_error_grad/Reshape
p61
aVOptimization/gradients/loss_function/mean_squared_error_grad/Shape
p62
aVOptimization/gradients/loss_function/mean_squared_error_grad/Tile
p63
aVOptimization/gradients/loss_function/mean_squared_error_grad/Shape_1
p64
aVOptimization/gradients/loss_function/mean_squared_error_grad/Shape_2
p65
aVOptimization/gradients/loss_function/mean_squared_error_grad/Const
p66
aVOptimization/gradients/loss_function/mean_squared_error_grad/Prod
p67
aVOptimization/gradients/loss_function/mean_squared_error_grad/Const_1
p68
aVOptimization/gradients/loss_function/mean_squared_error_grad/Prod_1
p69
aVOptimization/gradients/loss_function/mean_squared_error_grad/Maximum/y
p70
aVOptimization/gradients/loss_function/mean_squared_error_grad/Maximum
p71
aVOptimization/gradients/loss_function/mean_squared_error_grad/floordiv
p72
aVOptimization/gradients/loss_function/mean_squared_error_grad/Cast
p73
aVOptimization/gradients/loss_function/mean_squared_error_grad/truediv
p74
aVOptimization/gradients/loss_function/SquaredDifference_grad/Shape
p75
aVOptimization/gradients/loss_function/SquaredDifference_grad/Shape_1
p76
aVOptimization/gradients/loss_function/SquaredDifference_grad/BroadcastGradientArgs
p77
aVOptimization/gradients/loss_function/SquaredDifference_grad/scalar
p78
aVOptimization/gradients/loss_function/SquaredDifference_grad/mul
p79
aVOptimization/gradients/loss_function/SquaredDifference_grad/sub
p80
aVOptimization/gradients/loss_function/SquaredDifference_grad/mul_1
p81
aVOptimization/gradients/loss_function/SquaredDifference_grad/Sum
p82
aVOptimization/gradients/loss_function/SquaredDifference_grad/Reshape
p83
aVOptimization/gradients/loss_function/SquaredDifference_grad/Sum_1
p84
aVOptimization/gradients/loss_function/SquaredDifference_grad/Reshape_1
p85
aVOptimization/gradients/loss_function/SquaredDifference_grad/Neg
p86
aVOptimization/gradients/loss_function/SquaredDifference_grad/tuple/group_deps
p87
aVOptimization/gradients/loss_function/SquaredDifference_grad/tuple/control_dependency
p88
aVOptimization/gradients/loss_function/SquaredDifference_grad/tuple/control_dependency_1
p89
aVOptimization/gradients/output_layer/y_output_grad/Shape
p90
aVOptimization/gradients/output_layer/y_output_grad/Shape_1
p91
aVOptimization/gradients/output_layer/y_output_grad/BroadcastGradientArgs
p92
aVOptimization/gradients/output_layer/y_output_grad/Sum
p93
aVOptimization/gradients/output_layer/y_output_grad/Reshape
p94
aVOptimization/gradients/output_layer/y_output_grad/Sum_1
p95
aVOptimization/gradients/output_layer/y_output_grad/Reshape_1
p96
aVOptimization/gradients/output_layer/y_output_grad/tuple/group_deps
p97
aVOptimization/gradients/output_layer/y_output_grad/tuple/control_dependency
p98
aVOptimization/gradients/output_layer/y_output_grad/tuple/control_dependency_1
p99
aVOptimization/gradients/output_layer/MatMul_grad/MatMul
p100
aVOptimization/gradients/output_layer/MatMul_grad/MatMul_1
p101
aVOptimization/gradients/output_layer/MatMul_grad/tuple/group_deps
p102
aVOptimization/gradients/output_layer/MatMul_grad/tuple/control_dependency
p103
aVOptimization/gradients/output_layer/MatMul_grad/tuple/control_dependency_1
p104
aVOptimization/gradients/output_layer/concat_grad/Rank
p105
aVOptimization/gradients/output_layer/concat_grad/mod
p106
aVOptimization/gradients/output_layer/concat_grad/Shape
p107
aVOptimization/gradients/output_layer/concat_grad/ShapeN
p108
aVOptimization/gradients/output_layer/concat_grad/ConcatOffset
p109
aVOptimization/gradients/output_layer/concat_grad/Slice
p110
aVOptimization/gradients/output_layer/concat_grad/Slice_1
p111
aVOptimization/gradients/output_layer/concat_grad/tuple/group_deps
p112
aVOptimization/gradients/output_layer/concat_grad/tuple/control_dependency
p113
aVOptimization/gradients/output_layer/concat_grad/tuple/control_dependency_1
p114
aVOptimization/gradients/layer2/layer2_nodes_grad/TanhGrad
p115
aVOptimization/gradients/layer2/Add_grad/Shape
p116
aVOptimization/gradients/layer2/Add_grad/Shape_1
p117
aVOptimization/gradients/layer2/Add_grad/BroadcastGradientArgs
p118
aVOptimization/gradients/layer2/Add_grad/Sum
p119
aVOptimization/gradients/layer2/Add_grad/Reshape
p120
aVOptimization/gradients/layer2/Add_grad/Sum_1
p121
aVOptimization/gradients/layer2/Add_grad/Reshape_1
p122
aVOptimization/gradients/layer2/Add_grad/tuple/group_deps
p123
aVOptimization/gradients/layer2/Add_grad/tuple/control_dependency
p124
aVOptimization/gradients/layer2/Add_grad/tuple/control_dependency_1
p125
aVOptimization/gradients/layer2/MatMul_grad/MatMul
p126
aVOptimization/gradients/layer2/MatMul_grad/MatMul_1
p127
aVOptimization/gradients/layer2/MatMul_grad/tuple/group_deps
p128
aVOptimization/gradients/layer2/MatMul_grad/tuple/control_dependency
p129
aVOptimization/gradients/layer2/MatMul_grad/tuple/control_dependency_1
p130
aVOptimization/gradients/layer2/concat_grad/Rank
p131
aVOptimization/gradients/layer2/concat_grad/mod
p132
aVOptimization/gradients/layer2/concat_grad/Shape
p133
aVOptimization/gradients/layer2/concat_grad/ShapeN
p134
aVOptimization/gradients/layer2/concat_grad/ConcatOffset
p135
aVOptimization/gradients/layer2/concat_grad/Slice
p136
aVOptimization/gradients/layer2/concat_grad/Slice_1
p137
aVOptimization/gradients/layer2/concat_grad/tuple/group_deps
p138
aVOptimization/gradients/layer2/concat_grad/tuple/control_dependency
p139
aVOptimization/gradients/layer2/concat_grad/tuple/control_dependency_1
p140
aVOptimization/gradients/AddN
p141
aVOptimization/gradients/layer1/layer1_nodes_grad/TanhGrad
p142
aVOptimization/gradients/layer1/Add_grad/Shape
p143
aVOptimization/gradients/layer1/Add_grad/Shape_1
p144
aVOptimization/gradients/layer1/Add_grad/BroadcastGradientArgs
p145
aVOptimization/gradients/layer1/Add_grad/Sum
p146
aVOptimization/gradients/layer1/Add_grad/Reshape
p147
aVOptimization/gradients/layer1/Add_grad/Sum_1
p148
aVOptimization/gradients/layer1/Add_grad/Reshape_1
p149
aVOptimization/gradients/layer1/Add_grad/tuple/group_deps
p150
aVOptimization/gradients/layer1/Add_grad/tuple/control_dependency
p151
aVOptimization/gradients/layer1/Add_grad/tuple/control_dependency_1
p152
aVOptimization/gradients/layer1/MatMul_grad/MatMul
p153
aVOptimization/gradients/layer1/MatMul_grad/MatMul_1
p154
aVOptimization/gradients/layer1/MatMul_grad/tuple/group_deps
p155
aVOptimization/gradients/layer1/MatMul_grad/tuple/control_dependency
p156
aVOptimization/gradients/layer1/MatMul_grad/tuple/control_dependency_1
p157
aVOptimization/update/learning_rate
p158
aVOptimization/update/update_layer1/layer1_weights/ApplyGradientDescent
p159
aVOptimization/update/update_layer1/layer1_bias/ApplyGradientDescent
p160
aVOptimization/update/update_layer2/layer2_weights/ApplyGradientDescent
p161
aVOptimization/update/update_layer2/layer2_bias/ApplyGradientDescent
p162
aVOptimization/update/update_output_layer/output_layer_weights/ApplyGradientDescent
p163
aVOptimization/update/update_output_layer/output_layer_bias/ApplyGradientDescent
p164
aVOptimization/update
p165
aVsave/Const
p166
aVsave/SaveV2/tensor_names
p167
aVsave/SaveV2/shape_and_slices
p168
aVsave/SaveV2
p169
aVsave/control_dependency
p170
aVsave/RestoreV2/tensor_names
p171
aVsave/RestoreV2/shape_and_slices
p172
aVsave/RestoreV2
p173
aVsave/Assign
p174
aVsave/RestoreV2_1/tensor_names
p175
aVsave/RestoreV2_1/shape_and_slices
p176
aVsave/RestoreV2_1
p177
aVsave/Assign_1
p178
aVsave/RestoreV2_2/tensor_names
p179
aVsave/RestoreV2_2/shape_and_slices
p180
aVsave/RestoreV2_2
p181
aVsave/Assign_2
p182
aVsave/RestoreV2_3/tensor_names
p183
aVsave/RestoreV2_3/shape_and_slices
p184
aVsave/RestoreV2_3
p185
aVsave/Assign_3
p186
aVsave/RestoreV2_4/tensor_names
p187
aVsave/RestoreV2_4/shape_and_slices
p188
aVsave/RestoreV2_4
p189
aVsave/Assign_4
p190
aVsave/RestoreV2_5/tensor_names
p191
aVsave/RestoreV2_5/shape_and_slices
p192
aVsave/RestoreV2_5
p193
aVsave/Assign_5
p194
aVsave/restore_all
p195
a.